; Function Attrs: mustprogress nounwind uwtable
define hidden noundef zeroext i1 @_ZN14CompilerOracle10should_logERK12methodHandle(ptr noundef nonnull align 8 dereferenceable(16) %0) local_unnamed_addr #2 align 2 {
  %2 = load i8, ptr @LogCompilation, align 1
  %3 = trunc i8 %2 to i1
  br i1 %3, label %4, label %_ZL15check_predicate18CompileCommandEnumRK12methodHandle.exit

4:                                                ; preds = %1
  %5 = load i8, ptr getelementptr inbounds (i8, ptr @_ZL13option_filter, i64 2), align 2
  %6 = trunc i8 %5 to i1
  br i1 %6, label %7, label %_ZL15check_predicate18CompileCommandEnumRK12methodHandle.exit

7:                                                ; preds = %4
  %8 = load ptr, ptr @_ZL11option_list, align 8
  %.not.i8.i.not = icmp eq ptr %8, null
  br i1 %.not.i8.i.not, label %_ZL15check_predicate18CompileCommandEnumRK12methodHandle.exit, label %.preheader.i10.i

.preheader.i10.i:                                 ; preds = %7, %14
  %.09.i.i.i = phi ptr [ %16, %14 ], [ %8, %7 ]
  %9 = getelementptr inbounds i8, ptr %.09.i.i.i, i64 40
  %10 = load i32, ptr %9, align 8
  %11 = icmp eq i32 %10, 2
  br i1 %11, label %12, label %14

12:                                               ; preds = %.preheader.i10.i
  %13 = tail call noundef zeroext i1 @_ZNK13MethodMatcher7matchesERK12methodHandle(ptr noundef nonnull align 8 dereferenceable(32) %.09.i.i.i, ptr noundef nonnull align 8 dereferenceable(16) %0) #19
  br i1 %13, label %17, label %14

14:                                               ; preds = %12, %.preheader.i10.i
  %15 = getelementptr inbounds i8, ptr %.09.i.i.i, i64 32
  %16 = load ptr, ptr %15, align 8
  %.not.i.i11.i = icmp eq ptr %16, null
  br i1 %.not.i.i11.i, label %_ZL15check_predicate18CompileCommandEnumRK12methodHandle.exit, label %.preheader.i10.i, !llvm.loop !6

17:                                               ; preds = %12
  %18 = getelementptr inbounds i8, ptr %.09.i.i.i, i64 48
  %19 = load i8, ptr %18, align 8
  %20 = trunc i8 %19 to i1
  br label %_ZL15check_predicate18CompileCommandEnumRK12methodHandle.exit

_ZL15check_predicate18CompileCommandEnumRK12methodHandle.exit: ; preds = %14, %17, %7, %4, %1
  %.0 = phi i1 [ false, %1 ], [ true, %4 ], [ %20, %17 ], [ false, %7 ], [ false, %14 ]
  ret i1 %.0
}